; Function Attrs: cold nounwind optsize uwtable
define internal range(i32 -2147483648, 1) i32 @init(ptr noundef readonly captures(none) %0) #0 {
  %2 = load ptr, ptr %0, align 8, !tbaa !4
  %3 = tail call i32 @ff_cbs_init(ptr noundef %2, i32 noundef 273, ptr noundef null) #5
  %4 = icmp slt i32 %3, 0
  br i1 %4, label %9, label %5

5:                                                ; preds = %1
  %6 = load ptr, ptr %2, align 8, !tbaa !12
  %7 = getelementptr inbounds nuw i8, ptr %6, i64 24
  store ptr @decompose_unit_types, ptr %7, align 8, !tbaa !19
  %8 = getelementptr inbounds nuw i8, ptr %6, i64 32
  store i32 1, ptr %8, align 8, !tbaa !23
  br label %9

9:                                                ; preds = %1, %5
  %.0 = phi i32 [ 0, %5 ], [ %3, %1 ]
  ret i32 %.0
}